target datalayout = "e-m:e-p270:32:32-p271:32:32-p272:64:64-i64:64-i128:128-f80:128-n8:16:32:64-S128"
target triple = "x86_64-pc-linux-gnu"

%struct.vtx_data = type { i64, ptr, ptr, ptr, ptr }

@Verbose = external global i8, align 1
@stderr = external global ptr, align 8
@.str = private unnamed_addr constant [22 x i8] c"mdsModel: delta = %f\0A\00", align 1

; Function Attrs: nounwind uwtable
define ptr @mdsModel(ptr noundef %0, i32 noundef %1) #0 {
  %3 = alloca ptr, align 8
  %4 = alloca ptr, align 8
  %5 = alloca i32, align 4
  %6 = alloca i32, align 4
  %7 = alloca i32, align 4
  %8 = alloca ptr, align 8
  %9 = alloca i32, align 4
  %10 = alloca double, align 8
  %11 = alloca i32, align 4
  %12 = alloca i64, align 8
  store ptr %0, ptr %4, align 8, !tbaa !42
  store i32 %1, ptr %5, align 4, !tbaa !3
  call void @llvm.lifetime.start.p0(i64 4, ptr %6) #10
  call void @llvm.lifetime.start.p0(i64 4, ptr %7) #10
  call void @llvm.lifetime.start.p0(i64 8, ptr %8) #10
  call void @llvm.lifetime.start.p0(i64 4, ptr %9) #10
  store i32 0, ptr %9, align 4, !tbaa !3
  call void @llvm.lifetime.start.p0(i64 8, ptr %10) #10
  store double 0.000000e+00, ptr %10, align 8, !tbaa !36
  %13 = load ptr, ptr %4, align 8, !tbaa !42
  %14 = getelementptr inbounds nuw %struct.vtx_data, ptr %13, i32 0, i32 2
  %15 = load ptr, ptr %14, align 8, !tbaa !45
  %16 = icmp eq ptr %15, null
  br i1 %16, label %17, label %18

17:                                               ; preds = %2
  store ptr null, ptr %3, align 8
  store i32 1, ptr %11, align 4
  br label %115

18:                                               ; preds = %2
  %19 = load ptr, ptr %4, align 8, !tbaa !42
  %20 = load i32, ptr %5, align 4, !tbaa !3
  %21 = call ptr @compute_weighted_apsp_packed(ptr noundef %19, i32 noundef %20)
  store ptr %21, ptr %8, align 8, !tbaa !43
  store i32 0, ptr %6, align 4, !tbaa !3
  br label %22

22:                                               ; preds = %103, %18
  %23 = load i32, ptr %6, align 4, !tbaa !3
  %24 = load i32, ptr %5, align 4, !tbaa !3
  %25 = icmp slt i32 %23, %24
  br i1 %25, label %26, label %106

26:                                               ; preds = %22
  %27 = load i32, ptr %6, align 4, !tbaa !3
  %28 = load i32, ptr %9, align 4, !tbaa !3
  %29 = add nsw i32 %28, %27
  store i32 %29, ptr %9, align 4, !tbaa !3
  call void @llvm.lifetime.start.p0(i64 8, ptr %12) #10
  store i64 1, ptr %12, align 8, !tbaa !48
  br label %30

30:                                               ; preds = %99, %26
  %31 = load i64, ptr %12, align 8, !tbaa !48
  %32 = load ptr, ptr %4, align 8, !tbaa !42
  %33 = load i32, ptr %6, align 4, !tbaa !3
  %34 = sext i32 %33 to i64
  %35 = getelementptr inbounds %struct.vtx_data, ptr %32, i64 %34
  %36 = getelementptr inbounds nuw %struct.vtx_data, ptr %35, i32 0, i32 0
  %37 = load i64, ptr %36, align 8, !tbaa !49
  %38 = icmp ult i64 %31, %37
  br i1 %38, label %40, label %39

39:                                               ; preds = %30
  store i32 5, ptr %11, align 4
  call void @llvm.lifetime.end.p0(i64 8, ptr %12) #10
  br label %102

40:                                               ; preds = %30
  %41 = load ptr, ptr %4, align 8, !tbaa !42
  %42 = load i32, ptr %6, align 4, !tbaa !3
  %43 = sext i32 %42 to i64
  %44 = getelementptr inbounds %struct.vtx_data, ptr %41, i64 %43
  %45 = getelementptr inbounds nuw %struct.vtx_data, ptr %44, i32 0, i32 1
  %46 = load ptr, ptr %45, align 8, !tbaa !50
  %47 = load i64, ptr %12, align 8, !tbaa !48
  %48 = getelementptr inbounds nuw i32, ptr %46, i64 %47
  %49 = load i32, ptr %48, align 4, !tbaa !3
  store i32 %49, ptr %7, align 4, !tbaa !3
  %50 = load i32, ptr %7, align 4, !tbaa !3
  %51 = load i32, ptr %6, align 4, !tbaa !3
  %52 = icmp slt i32 %50, %51
  br i1 %52, label %53, label %54

53:                                               ; preds = %40
  br label %99

54:                                               ; preds = %40
  %55 = load ptr, ptr %8, align 8, !tbaa !43
  %56 = load i32, ptr %6, align 4, !tbaa !3
  %57 = load i32, ptr %5, align 4, !tbaa !3
  %58 = mul nsw i32 %56, %57
  %59 = load i32, ptr %7, align 4, !tbaa !3
  %60 = add nsw i32 %58, %59
  %61 = load i32, ptr %9, align 4, !tbaa !3
  %62 = sub nsw i32 %60, %61
  %63 = sext i32 %62 to i64
  %64 = getelementptr inbounds float, ptr %55, i64 %63
  %65 = load float, ptr %64, align 4, !tbaa !51
  %66 = load ptr, ptr %4, align 8, !tbaa !42
  %67 = load i32, ptr %6, align 4, !tbaa !3
  %68 = sext i32 %67 to i64
  %69 = getelementptr inbounds %struct.vtx_data, ptr %66, i64 %68
  %70 = getelementptr inbounds nuw %struct.vtx_data, ptr %69, i32 0, i32 2
  %71 = load ptr, ptr %70, align 8, !tbaa !45
  %72 = load i64, ptr %12, align 8, !tbaa !48
  %73 = getelementptr inbounds nuw float, ptr %71, i64 %72
  %74 = load float, ptr %73, align 4, !tbaa !51
  %75 = fsub float %65, %74
  %76 = call float @llvm.fabs.f32(float %75)
  %77 = fpext float %76 to double
  %78 = load double, ptr %10, align 8, !tbaa !36
  %79 = fadd double %78, %77
  store double %79, ptr %10, align 8, !tbaa !36
  %80 = load ptr, ptr %4, align 8, !tbaa !42
  %81 = load i32, ptr %6, align 4, !tbaa !3
  %82 = sext i32 %81 to i64
  %83 = getelementptr inbounds %struct.vtx_data, ptr %80, i64 %82
  %84 = getelementptr inbounds nuw %struct.vtx_data, ptr %83, i32 0, i32 2
  %85 = load ptr, ptr %84, align 8, !tbaa !45
  %86 = load i64, ptr %12, align 8, !tbaa !48
  %87 = getelementptr inbounds nuw float, ptr %85, i64 %86
  %88 = load float, ptr %87, align 4, !tbaa !51
  %89 = load ptr, ptr %8, align 8, !tbaa !43
  %90 = load i32, ptr %6, align 4, !tbaa !3
  %91 = load i32, ptr %5, align 4, !tbaa !3
  %92 = mul nsw i32 %90, %91
  %93 = load i32, ptr %7, align 4, !tbaa !3
  %94 = add nsw i32 %92, %93
  %95 = load i32, ptr %9, align 4, !tbaa !3
  %96 = sub nsw i32 %94, %95
  %97 = sext i32 %96 to i64
  %98 = getelementptr inbounds float, ptr %89, i64 %97
  store float %88, ptr %98, align 4, !tbaa !51
  br label %99

99:                                               ; preds = %54, %53
  %100 = load i64, ptr %12, align 8, !tbaa !48
  %101 = add i64 %100, 1
  store i64 %101, ptr %12, align 8, !tbaa !48
  br label %30, !llvm.loop !61

102:                                              ; preds = %39
  br label %103

103:                                              ; preds = %102
  %104 = load i32, ptr %6, align 4, !tbaa !3
  %105 = add nsw i32 %104, 1
  store i32 %105, ptr %6, align 4, !tbaa !3
  br label %22, !llvm.loop !62

106:                                              ; preds = %22
  %107 = load i8, ptr @Verbose, align 1, !tbaa !63
  %108 = icmp ne i8 %107, 0
  br i1 %108, label %109, label %113

109:                                              ; preds = %106
  %110 = load ptr, ptr @stderr, align 8, !tbaa !59
  %111 = load double, ptr %10, align 8, !tbaa !36
  %112 = call i32 (ptr, ptr, ...) @fprintf(ptr noundef %110, ptr noundef @.str, double noundef %111) #10
  br label %113

113:                                              ; preds = %109, %106
  %114 = load ptr, ptr %8, align 8, !tbaa !43
  store ptr %114, ptr %3, align 8
  store i32 1, ptr %11, align 4
  br label %115

115:                                              ; preds = %113, %17
  call void @llvm.lifetime.end.p0(i64 8, ptr %10) #10
  call void @llvm.lifetime.end.p0(i64 4, ptr %9) #10
  call void @llvm.lifetime.end.p0(i64 8, ptr %8) #10
  call void @llvm.lifetime.end.p0(i64 4, ptr %7) #10
  call void @llvm.lifetime.end.p0(i64 4, ptr %6) #10
  %116 = load ptr, ptr %3, align 8
  ret ptr %116
}