; Function Attrs: nounwind uwtable
define noalias noundef ptr @mdsModel(ptr noundef %0, i32 noundef %1) local_unnamed_addr #0 {
  %3 = getelementptr inbounds nuw i8, ptr %0, i64 16
  %4 = load ptr, ptr %3, align 8, !tbaa !39
  %5 = icmp eq ptr %4, null
  br i1 %5, label %44, label %6

6:                                                ; preds = %2
  %7 = tail call fastcc ptr @compute_weighted_apsp_packed(ptr noundef nonnull %0, i32 noundef %1)
  %8 = icmp sgt i32 %1, 0
  br i1 %8, label %.lr.ph48.preheader, label %._crit_edge49

.lr.ph48.preheader:                               ; preds = %6
  %9 = zext nneg i32 %1 to i64
  br label %.lr.ph48

.lr.ph48:                                         ; preds = %.lr.ph48.preheader, %._crit_edge
  %indvars.iv = phi i64 [ 0, %.lr.ph48.preheader ], [ %indvars.iv.next, %._crit_edge ]
  %.03646 = phi double [ 0.000000e+00, %.lr.ph48.preheader ], [ %.1.lcssa, %._crit_edge ]
  %.03745 = phi i32 [ 0, %.lr.ph48.preheader ], [ %11, %._crit_edge ]
  %10 = trunc nuw nsw i64 %indvars.iv to i32
  %11 = add nuw nsw i32 %.03745, %10
  %12 = getelementptr inbounds nuw %struct.vtx_data, ptr %0, i64 %indvars.iv
  %13 = load i64, ptr %12, align 8, !tbaa !43
  %14 = icmp ugt i64 %13, 1
  br i1 %14, label %.lr.ph, label %._crit_edge

.lr.ph:                                           ; preds = %.lr.ph48
  %15 = getelementptr inbounds nuw i8, ptr %12, i64 8
  %16 = load ptr, ptr %15, align 8, !tbaa !44
  %17 = trunc i64 %indvars.iv to i32
  %18 = mul i32 %1, %17
  %19 = sub nsw i32 %18, %11
  %20 = getelementptr inbounds nuw i8, ptr %12, i64 16
  br label %21

._crit_edge:                                      ; preds = %38, %.lr.ph48
  %.1.lcssa = phi double [ %.03646, %.lr.ph48 ], [ %.2, %38 ]
  %indvars.iv.next = add nuw nsw i64 %indvars.iv, 1
  %exitcond52.not = icmp eq i64 %indvars.iv.next, %9
  br i1 %exitcond52.not, label %._crit_edge49, label %.lr.ph48, !llvm.loop !54

21:                                               ; preds = %.lr.ph, %38
  %.043 = phi i64 [ 1, %.lr.ph ], [ %39, %38 ]
  %.142 = phi double [ %.03646, %.lr.ph ], [ %.2, %38 ]
  %22 = getelementptr inbounds nuw i32, ptr %16, i64 %.043
  %23 = load i32, ptr %22, align 4, !tbaa !46
  %24 = sext i32 %23 to i64
  %25 = icmp sgt i64 %indvars.iv, %24
  br i1 %25, label %38, label %26

26:                                               ; preds = %21
  %27 = add i32 %19, %23
  %28 = sext i32 %27 to i64
  %29 = getelementptr inbounds float, ptr %7, i64 %28
  %30 = load float, ptr %29, align 4, !tbaa !47
  %31 = load ptr, ptr %20, align 8, !tbaa !39
  %32 = getelementptr inbounds nuw float, ptr %31, i64 %.043
  %33 = load float, ptr %32, align 4, !tbaa !47
  %34 = fsub float %30, %33
  %35 = tail call float @llvm.fabs.f32(float %34)
  %36 = fpext float %35 to double
  %37 = fadd double %.142, %36
  store float %33, ptr %29, align 4, !tbaa !47
  br label %38

38:                                               ; preds = %21, %26
  %.2 = phi double [ %.142, %21 ], [ %37, %26 ]
  %39 = add nuw i64 %.043, 1
  %exitcond.not = icmp eq i64 %39, %13
  br i1 %exitcond.not, label %._crit_edge, label %21, !llvm.loop !55

._crit_edge49:                                    ; preds = %._crit_edge, %6
  %.036.lcssa = phi double [ 0.000000e+00, %6 ], [ %.1.lcssa, %._crit_edge ]
  %40 = load i8, ptr @Verbose, align 1, !tbaa !56
  %.not = icmp eq i8 %40, 0
  br i1 %.not, label %44, label %41

41:                                               ; preds = %._crit_edge49
  %42 = load ptr, ptr @stderr, align 8, !tbaa !37
  %43 = tail call i32 (ptr, ptr, ...) @fprintf(ptr noundef %42, ptr noundef nonnull @.str, double noundef %.036.lcssa) #18
  br label %44

44:                                               ; preds = %._crit_edge49, %41, %2
  %.038 = phi ptr [ null, %2 ], [ %7, %41 ], [ %7, %._crit_edge49 ]
  ret ptr %.038
}